EXPORTS
    _Z22fnNEWorldFoundationKitv @1
    _ZN3GUI4Form10singleloopEv @2
    _ZN3GUI4Form14getControlByIDEi @3
    _ZN3GUI4Form15registerControlEPNS_8controlsE @4
    _ZN3GUI4Form16registerControlsEiPNS_8controlsEz @5
    _ZN3GUI4Form4InitEv @6
    _ZN3GUI4Form6onLoadEv @7
    _ZN3GUI4Form6renderEv @8
    _ZN3GUI4Form6updateEv @9
    _ZN3GUI4Form7cleanupEv @10
    _ZN3GUI4Form7onLeaveEv @11
    _ZN3GUI4Form8onRenderEv @12
    _ZN3GUI4Form8onUpdateEv @13
    _ZN3GUI4FormC1Ev @14
    _ZN3GUI4FormC2Ev @15
    _ZN3GUI4FormD1Ev @16
    _ZN3GUI4FormD2Ev @17
    _ZN3GUI5label6renderEv @18
    _ZN3GUI5label6updateEv @19
    _ZN3GUI5labelC1ESsiiiidddd @20
    _ZN3GUI5labelC1Ev @21
    _ZN3GUI5labelC2ESsiiiidddd @22
    _ZN3GUI6button6renderEv @23
    _ZN3GUI6button6updateEv @24
    _ZN3GUI6buttonC1ESsiiiidddd @25
    _ZN3GUI6buttonC1Ev @26
    _ZN3GUI6buttonC2ESsiiiidddd @27
    _ZN3GUI7textbox6renderEv @28
    _ZN3GUI7textbox6updateEv @29
    _ZN3GUI7textboxC1ESsiiiidddd @30
    _ZN3GUI7textboxC1Ev @31
    _ZN3GUI7textboxC2ESsiiiidddd @32
    _ZN3GUI7vscroll6renderEv @33
    _ZN3GUI7vscroll6updateEv @34
    _ZN3GUI7vscrollC1Eiiiiiidddd @35
    _ZN3GUI7vscrollC1Ev @36
    _ZN3GUI7vscrollC2Eiiiiiidddd @37
    _ZN3GUI8controls6renderEv @38
    _ZN3GUI8controls6resizeEiiiidddd @39
    _ZN3GUI8controls6updateEv @40
    _ZN3GUI8controls7destroyEv @41
    _ZN3GUI8controls9updateposEv @42
    _ZN3GUI8controlsD0Ev @43
    _ZN3GUI8controlsD1Ev @44
    _ZN3GUI8controlsD2Ev @45
    _ZN3GUI8imagebox6renderEv @46
    _ZN3GUI8imagebox6updateEv @47
    _ZN3GUI8imageboxC1Effffjiiiidddd @48
    _ZN3GUI8imageboxC1Ev @49
    _ZN3GUI8imageboxC2Effffjiiiidddd @50
    _ZN3GUI8trackbar6renderEv @51
    _ZN3GUI8trackbar6updateEv @52
    _ZN3GUI8trackbarC1ESsiiiiiidddd @53
    _ZN3GUI8trackbarC1Ev @54
    _ZN3GUI8trackbarC2ESsiiiiiidddd @55
    _ZTIN3GUI4FormE @56 DATA
    _ZTIN3GUI5labelE @57 DATA
    _ZTIN3GUI6buttonE @58 DATA
    _ZTIN3GUI7textboxE @59 DATA
    _ZTIN3GUI7vscrollE @60 DATA
    _ZTIN3GUI8controlsE @61 DATA
    _ZTIN3GUI8imageboxE @62 DATA
    _ZTIN3GUI8trackbarE @63 DATA
    _ZTVN3GUI4FormE @64 DATA
    _ZTVN3GUI5labelE @65 DATA
    _ZTVN3GUI6buttonE @66 DATA
    _ZTVN3GUI7textboxE @67 DATA
    _ZTVN3GUI7vscrollE @68 DATA
    _ZTVN3GUI8controlsE @69 DATA
    _ZTVN3GUI8imageboxE @70 DATA
    _ZTVN3GUI8trackbarE @71 DATA
    nNEWorldFoundationKit @72 DATA

IMPORTS

    glfw3.dll.glfwCreateCursor
    glfw3.dll.glfwCreateStandardCursor
    glfw3.dll.glfwCreateWindow
    glfw3.dll.glfwDefaultWindowHints
    glfw3.dll.glfwDestroyCursor
    glfw3.dll.glfwDestroyWindow
    glfw3.dll.glfwExtensionSupported
    glfw3.dll.glfwGetClipboardString
    glfw3.dll.glfwGetCurrentContext
    glfw3.dll.glfwGetCursorPos
    glfw3.dll.glfwGetFramebufferSize
    glfw3.dll.glfwGetGammaRamp
    glfw3.dll.glfwGetInputMode
    glfw3.dll.glfwGetJoystickAxes
    glfw3.dll.glfwGetJoystickButtons
    glfw3.dll.glfwGetJoystickName
    glfw3.dll.glfwGetKey
    glfw3.dll.glfwGetMonitorName
    glfw3.dll.glfwGetMonitorPhysicalSize
    glfw3.dll.glfwGetMonitorPos
    glfw3.dll.glfwGetMonitors
    glfw3.dll.glfwGetMouseButton
    glfw3.dll.glfwGetPrimaryMonitor
    glfw3.dll.glfwGetProcAddress
    glfw3.dll.glfwGetTime
    glfw3.dll.glfwGetVersion
    glfw3.dll.glfwGetVersionString
    glfw3.dll.glfwGetVideoMode
    glfw3.dll.glfwGetVideoModes
    glfw3.dll.glfwGetWGLContext
    glfw3.dll.glfwGetWin32Adapter
    glfw3.dll.glfwGetWin32Monitor
    glfw3.dll.glfwGetWin32Window
    glfw3.dll.glfwGetWindowAttrib
    glfw3.dll.glfwGetWindowFrameSize
    glfw3.dll.glfwGetWindowMonitor
    glfw3.dll.glfwGetWindowPos
    glfw3.dll.glfwGetWindowSize
    glfw3.dll.glfwGetWindowUserPointer
    glfw3.dll.glfwHideWindow
    glfw3.dll.glfwIconifyWindow
    glfw3.dll.glfwInit
    glfw3.dll.glfwJoystickPresent
    glfw3.dll.glfwMakeContextCurrent
    glfw3.dll.glfwPollEvents
    glfw3.dll.glfwPostEmptyEvent
    glfw3.dll.glfwRestoreWindow
    glfw3.dll.glfwSetCharCallback
    glfw3.dll.glfwSetCharModsCallback
    glfw3.dll.glfwSetClipboardString
    glfw3.dll.glfwSetCursor
    glfw3.dll.glfwSetCursorEnterCallback
    glfw3.dll.glfwSetCursorPos
    glfw3.dll.glfwSetCursorPosCallback
    glfw3.dll.glfwSetDropCallback
    glfw3.dll.glfwSetErrorCallback
    glfw3.dll.glfwSetFramebufferSizeCallback
    glfw3.dll.glfwSetGamma
    glfw3.dll.glfwSetGammaRamp
    glfw3.dll.glfwSetInputMode
    glfw3.dll.glfwSetKeyCallback
    glfw3.dll.glfwSetMonitorCallback
    glfw3.dll.glfwSetMouseButtonCallback
    glfw3.dll.glfwSetScrollCallback
    glfw3.dll.glfwSetTime
    glfw3.dll.glfwSetWindowCloseCallback
    glfw3.dll.glfwSetWindowFocusCallback
    glfw3.dll.glfwSetWindowIconifyCallback
    glfw3.dll.glfwSetWindowPos
    glfw3.dll.glfwSetWindowPosCallback
    glfw3.dll.glfwSetWindowRefreshCallback
    glfw3.dll.glfwSetWindowShouldClose
    glfw3.dll.glfwSetWindowSize
    glfw3.dll.glfwSetWindowSizeCallback
    glfw3.dll.glfwSetWindowTitle
    glfw3.dll.glfwSetWindowUserPointer
    glfw3.dll.glfwShowWindow
    glfw3.dll.glfwSwapBuffers
    glfw3.dll.glfwSwapInterval
    glfw3.dll.glfwTerminate
    glfw3.dll.glfwWaitEvents
    glfw3.dll.glfwWindowHint
    glfw3.dll.glfwWindowShouldClose
